target datalayout = "e-m:e-p270:32:32-p271:32:32-p272:64:64-i64:64-i128:128-f80:128-n8:16:32:64-S128"
target triple = "x86_64-pc-linux-gnu"

@hf_lcp_opt_data = internal global i32 0, align 4
@hf_lcp_opt_magic_number = internal global i32 0, align 4
@hf_lcp_opt_ep_disc_class = internal global i32 0, align 4
@hf_lcp_opt_ip_address = internal global i32 0, align 4
@hf_lcp_opt_802_1_address = internal global i32 0, align 4
@hf_lcp_opt_magic_block = internal global i32 0, align 4
@hf_lcp_opt_psndn = internal global i32 0, align 4
@ett_lcp_multilink_ep_disc_opt = internal global i32 0, align 4
@ett_lcp_magic_block = internal global i32 0, align 4
@proto_lcp_option_multilink_ep_disc = internal global i32 0, align 4
@.str.692 = private unnamed_addr constant [8 x i8] c"Unknown\00", align 1
@.str.1332 = private unnamed_addr constant [12 x i8] c": Class: %s\00", align 1

; Function Attrs: null_pointer_is_valid sspstrong uwtable
define internal i32 @dissect_lcp_multilink_ep_disc_opt(ptr noundef %0, ptr noundef %1, ptr noundef %2, ptr noundef %3) #1 {
  %5 = alloca i32, align 4
  %6 = alloca ptr, align 8
  %7 = alloca ptr, align 8
  %8 = alloca ptr, align 8
  %9 = alloca ptr, align 8
  %10 = alloca ptr, align 8
  %11 = alloca ptr, align 8
  %12 = alloca ptr, align 8
  %13 = alloca ptr, align 8
  %14 = alloca i32, align 4
  %15 = alloca i32, align 4
  %16 = alloca i32, align 4
  %17 = alloca i32, align 4
  store ptr %0, ptr %6, align 8
  store ptr %1, ptr %7, align 8
  store ptr %2, ptr %8, align 8
  store ptr %3, ptr %9, align 8
  call void @llvm.lifetime.start.p0(i64 8, ptr %10) #6
  call void @llvm.lifetime.start.p0(i64 8, ptr %11) #6
  call void @llvm.lifetime.start.p0(i64 8, ptr %12) #6
  call void @llvm.lifetime.start.p0(i64 8, ptr %13) #6
  call void @llvm.lifetime.start.p0(i64 4, ptr %14) #6
  call void @llvm.lifetime.start.p0(i64 4, ptr %15) #6
  store i32 0, ptr %15, align 4
  call void @llvm.lifetime.start.p0(i64 4, ptr %16) #6
  %18 = load ptr, ptr %6, align 8
  %19 = call i32 @tvb_reported_length(ptr noundef %18)
  store i32 %19, ptr %16, align 4
  %20 = load ptr, ptr %6, align 8
  %21 = load ptr, ptr %7, align 8
  %22 = load ptr, ptr %8, align 8
  %23 = load i32, ptr @proto_lcp_option_multilink_ep_disc, align 4
  %24 = load i32, ptr @ett_lcp_multilink_ep_disc_opt, align 4
  %25 = call zeroext i1 @dissect_lcp_var_opt(ptr noundef %20, ptr noundef %21, ptr noundef %22, i32 noundef %23, i32 noundef %24, i32 noundef 3, ptr noundef %10, ptr noundef %12)
  br i1 %25, label %29, label %26

26:                                               ; preds = %4
  %27 = load ptr, ptr %6, align 8
  %28 = call i32 @tvb_captured_length(ptr noundef %27)
  store i32 %28, ptr %5, align 4
  store i32 1, ptr %17, align 4
  br label %163

29:                                               ; preds = %4
  %30 = load ptr, ptr %10, align 8
  %31 = load i32, ptr @hf_lcp_opt_ep_disc_class, align 4
  %32 = load ptr, ptr %6, align 8
  %33 = load i32, ptr %15, align 4
  %34 = add i32 %33, 2
  %35 = call ptr @proto_tree_add_item_ret_uint(ptr noundef %30, i32 noundef %31, ptr noundef %32, i32 noundef %34, i32 noundef 1, i32 noundef 0, ptr noundef %14)
  %36 = load ptr, ptr %12, align 8
  %37 = load i32, ptr %14, align 4
  %38 = call ptr @val_to_str_const(i32 noundef %37, ptr noundef @multilink_ep_disc_class_vals, ptr noundef @.str.692)
  call void (ptr, ptr, ...) @proto_item_append_text(ptr noundef %36, ptr noundef @.str.1332, ptr noundef %38)
  %39 = load i32, ptr %16, align 4
  %40 = icmp sle i32 %39, 3
  br i1 %40, label %41, label %44

41:                                               ; preds = %29
  %42 = load ptr, ptr %6, align 8
  %43 = call i32 @tvb_captured_length(ptr noundef %42)
  store i32 %43, ptr %5, align 4
  store i32 1, ptr %17, align 4
  br label %163

44:                                               ; preds = %29
  %45 = load i32, ptr %16, align 4
  %46 = sub i32 %45, 3
  store i32 %46, ptr %16, align 4
  %47 = load i32, ptr %15, align 4
  %48 = add i32 %47, 3
  store i32 %48, ptr %15, align 4
  %49 = load i32, ptr %14, align 4
  switch i32 %49, label %153 [
    i32 0, label %160
    i32 1, label %50
    i32 2, label %63
    i32 3, label %80
    i32 4, label %97
    i32 5, label %140
  ]

50:                                               ; preds = %44
  %51 = load ptr, ptr %10, align 8
  %52 = load i32, ptr @hf_lcp_opt_data, align 4
  %53 = load ptr, ptr %6, align 8
  %54 = load i32, ptr %15, align 4
  %55 = load i32, ptr %16, align 4
  %56 = icmp sle i32 %55, 20
  br i1 %56, label %57, label %59

57:                                               ; preds = %50
  %58 = load i32, ptr %16, align 4
  br label %60

59:                                               ; preds = %50
  br label %60

60:                                               ; preds = %59, %57
  %61 = phi i32 [ %58, %57 ], [ 20, %59 ]
  %62 = call ptr @proto_tree_add_item(ptr noundef %51, i32 noundef %52, ptr noundef %53, i32 noundef %54, i32 noundef %61, i32 noundef 0)
  br label %160

63:                                               ; preds = %44
  %64 = load i32, ptr %16, align 4
  %65 = icmp sge i32 %64, 4
  br i1 %65, label %66, label %72

66:                                               ; preds = %63
  %67 = load ptr, ptr %10, align 8
  %68 = load i32, ptr @hf_lcp_opt_ip_address, align 4
  %69 = load ptr, ptr %6, align 8
  %70 = load i32, ptr %15, align 4
  %71 = call ptr @proto_tree_add_item(ptr noundef %67, i32 noundef %68, ptr noundef %69, i32 noundef %70, i32 noundef 4, i32 noundef 0)
  br label %79

72:                                               ; preds = %63
  %73 = load ptr, ptr %10, align 8
  %74 = load i32, ptr @hf_lcp_opt_data, align 4
  %75 = load ptr, ptr %6, align 8
  %76 = load i32, ptr %15, align 4
  %77 = load i32, ptr %16, align 4
  %78 = call ptr @proto_tree_add_item(ptr noundef %73, i32 noundef %74, ptr noundef %75, i32 noundef %76, i32 noundef %77, i32 noundef 0)
  br label %79

79:                                               ; preds = %72, %66
  br label %160

80:                                               ; preds = %44
  %81 = load i32, ptr %16, align 4
  %82 = icmp sge i32 %81, 6
  br i1 %82, label %83, label %89

83:                                               ; preds = %80
  %84 = load ptr, ptr %10, align 8
  %85 = load i32, ptr @hf_lcp_opt_802_1_address, align 4
  %86 = load ptr, ptr %6, align 8
  %87 = load i32, ptr %15, align 4
  %88 = call ptr @proto_tree_add_item(ptr noundef %84, i32 noundef %85, ptr noundef %86, i32 noundef %87, i32 noundef 6, i32 noundef 0)
  br label %96

89:                                               ; preds = %80
  %90 = load ptr, ptr %10, align 8
  %91 = load i32, ptr @hf_lcp_opt_data, align 4
  %92 = load ptr, ptr %6, align 8
  %93 = load i32, ptr %15, align 4
  %94 = load i32, ptr %16, align 4
  %95 = call ptr @proto_tree_add_item(ptr noundef %90, i32 noundef %91, ptr noundef %92, i32 noundef %93, i32 noundef %94, i32 noundef 0)
  br label %96

96:                                               ; preds = %89, %83
  br label %160

97:                                               ; preds = %44
  %98 = load i32, ptr %16, align 4
  %99 = srem i32 %98, 4
  %100 = icmp ne i32 %99, 0
  br i1 %100, label %101, label %108

101:                                              ; preds = %97
  %102 = load ptr, ptr %10, align 8
  %103 = load i32, ptr @hf_lcp_opt_data, align 4
  %104 = load ptr, ptr %6, align 8
  %105 = load i32, ptr %15, align 4
  %106 = load i32, ptr %16, align 4
  %107 = call ptr @proto_tree_add_item(ptr noundef %102, i32 noundef %103, ptr noundef %104, i32 noundef %105, i32 noundef %106, i32 noundef 0)
  br label %139

108:                                              ; preds = %97
  %109 = load ptr, ptr %10, align 8
  %110 = load i32, ptr @hf_lcp_opt_magic_block, align 4
  %111 = load ptr, ptr %6, align 8
  %112 = load i32, ptr %15, align 4
  %113 = load i32, ptr %16, align 4
  %114 = icmp sle i32 %113, 20
  br i1 %114, label %115, label %117

115:                                              ; preds = %108
  %116 = load i32, ptr %16, align 4
  br label %118

117:                                              ; preds = %108
  br label %118

118:                                              ; preds = %117, %115
  %119 = phi i32 [ %116, %115 ], [ 20, %117 ]
  %120 = call ptr @proto_tree_add_item(ptr noundef %109, i32 noundef %110, ptr noundef %111, i32 noundef %112, i32 noundef %119, i32 noundef 0)
  store ptr %120, ptr %13, align 8
  %121 = load ptr, ptr %13, align 8
  %122 = load i32, ptr @ett_lcp_magic_block, align 4
  %123 = call ptr @proto_item_add_subtree(ptr noundef %121, i32 noundef %122)
  store ptr %123, ptr %11, align 8
  br label %124

124:                                              ; preds = %133, %118
  %125 = load i32, ptr %16, align 4
  %126 = icmp sge i32 %125, 4
  br i1 %126, label %127, label %138

127:                                              ; preds = %124
  %128 = load ptr, ptr %11, align 8
  %129 = load i32, ptr @hf_lcp_opt_magic_number, align 4
  %130 = load ptr, ptr %6, align 8
  %131 = load i32, ptr %15, align 4
  %132 = call ptr @proto_tree_add_item(ptr noundef %128, i32 noundef %129, ptr noundef %130, i32 noundef %131, i32 noundef 4, i32 noundef 0)
  br label %133

133:                                              ; preds = %127
  %134 = load i32, ptr %16, align 4
  %135 = sub i32 %134, 4
  store i32 %135, ptr %16, align 4
  %136 = load i32, ptr %15, align 4
  %137 = add i32 %136, 4
  store i32 %137, ptr %15, align 4
  br label %124, !llvm.loop !11

138:                                              ; preds = %124
  br label %139

139:                                              ; preds = %138, %101
  br label %160

140:                                              ; preds = %44
  %141 = load ptr, ptr %10, align 8
  %142 = load i32, ptr @hf_lcp_opt_psndn, align 4
  %143 = load ptr, ptr %6, align 8
  %144 = load i32, ptr %15, align 4
  %145 = load i32, ptr %16, align 4
  %146 = icmp sgt i32 %145, 15
  br i1 %146, label %147, label %148

147:                                              ; preds = %140
  br label %150

148:                                              ; preds = %140
  %149 = load i32, ptr %16, align 4
  br label %150

150:                                              ; preds = %148, %147
  %151 = phi i32 [ 15, %147 ], [ %149, %148 ]
  %152 = call ptr @proto_tree_add_item(ptr noundef %141, i32 noundef %142, ptr noundef %143, i32 noundef %144, i32 noundef %151, i32 noundef 0)
  br label %160

153:                                              ; preds = %44
  %154 = load ptr, ptr %10, align 8
  %155 = load i32, ptr @hf_lcp_opt_data, align 4
  %156 = load ptr, ptr %6, align 8
  %157 = load i32, ptr %15, align 4
  %158 = load i32, ptr %16, align 4
  %159 = call ptr @proto_tree_add_item(ptr noundef %154, i32 noundef %155, ptr noundef %156, i32 noundef %157, i32 noundef %158, i32 noundef 0)
  br label %160

160:                                              ; preds = %153, %150, %139, %96, %79, %60, %44
  %161 = load ptr, ptr %6, align 8
  %162 = call i32 @tvb_captured_length(ptr noundef %161)
  store i32 %162, ptr %5, align 4
  store i32 1, ptr %17, align 4
  br label %163

163:                                              ; preds = %160, %41, %26
  call void @llvm.lifetime.end.p0(i64 4, ptr %16) #6
  call void @llvm.lifetime.end.p0(i64 4, ptr %15) #6
  call void @llvm.lifetime.end.p0(i64 4, ptr %14) #6
  call void @llvm.lifetime.end.p0(i64 8, ptr %13) #6
  call void @llvm.lifetime.end.p0(i64 8, ptr %12) #6
  call void @llvm.lifetime.end.p0(i64 8, ptr %11) #6
  call void @llvm.lifetime.end.p0(i64 8, ptr %10) #6
  %164 = load i32, ptr %5, align 4
  ret i32 %164
}