; Function Attrs: null_pointer_is_valid sspstrong uwtable
define internal i32 @dissect_lcp_multilink_ep_disc_opt(ptr noundef %0, ptr noundef %1, ptr noundef %2, ptr readnone captures(none) %3) #1 {
  %5 = alloca ptr, align 8
  %6 = alloca ptr, align 8
  %7 = alloca i32, align 4
  call void @llvm.lifetime.start.p0(i64 8, ptr nonnull %5) #8
  call void @llvm.lifetime.start.p0(i64 8, ptr nonnull %6) #8
  call void @llvm.lifetime.start.p0(i64 4, ptr nonnull %7) #8
  %8 = tail call i32 @tvb_reported_length(ptr noundef %0)
  %9 = load i32, ptr @proto_lcp_option_multilink_ep_disc, align 4
  %10 = load i32, ptr @ett_lcp_multilink_ep_disc_opt, align 4
  %11 = call fastcc zeroext i1 @dissect_lcp_var_opt(ptr noundef %0, ptr noundef %1, ptr noundef %2, i32 noundef %9, i32 noundef %10, i32 noundef 3, ptr noundef nonnull %5, ptr noundef nonnull %6)
  br i1 %11, label %14, label %12

12:                                               ; preds = %4
  %13 = tail call i32 @tvb_captured_length(ptr noundef %0)
  br label %74

14:                                               ; preds = %4
  %15 = load ptr, ptr %5, align 8
  %16 = load i32, ptr @hf_lcp_opt_ep_disc_class, align 4
  %17 = call ptr @proto_tree_add_item_ret_uint(ptr noundef %15, i32 noundef %16, ptr noundef %0, i32 noundef 2, i32 noundef 1, i32 noundef 0, ptr noundef nonnull %7)
  %18 = load ptr, ptr %6, align 8
  %19 = load i32, ptr %7, align 4
  %20 = call ptr @val_to_str_const(i32 noundef %19, ptr noundef nonnull @multilink_ep_disc_class_vals, ptr noundef nonnull @.str.692)
  call void (ptr, ptr, ...) @proto_item_append_text(ptr noundef %18, ptr noundef nonnull @.str.1332, ptr noundef %20)
  %21 = icmp slt i32 %8, 4
  br i1 %21, label %22, label %24

22:                                               ; preds = %14
  %23 = call i32 @tvb_captured_length(ptr noundef %0)
  br label %74

24:                                               ; preds = %14
  %25 = add nsw i32 %8, -3
  %26 = load i32, ptr %7, align 4
  switch i32 %26, label %70 [
    i32 0, label %.loopexit
    i32 1, label %27
    i32 2, label %32
    i32 3, label %40
    i32 4, label %48
    i32 5, label %66
  ]

27:                                               ; preds = %24
  %28 = load i32, ptr @hf_lcp_opt_data, align 4
  %29 = icmp samesign ult i32 %8, 24
  %30 = select i1 %29, i32 %25, i32 20
  %31 = call ptr @proto_tree_add_item(ptr noundef %15, i32 noundef %28, ptr noundef %0, i32 noundef 3, i32 noundef %30, i32 noundef 0)
  br label %.loopexit

32:                                               ; preds = %24
  %33 = icmp samesign ugt i32 %8, 6
  br i1 %33, label %34, label %37

34:                                               ; preds = %32
  %35 = load i32, ptr @hf_lcp_opt_ip_address, align 4
  %36 = call ptr @proto_tree_add_item(ptr noundef %15, i32 noundef %35, ptr noundef %0, i32 noundef 3, i32 noundef 4, i32 noundef 0)
  br label %.loopexit

37:                                               ; preds = %32
  %38 = load i32, ptr @hf_lcp_opt_data, align 4
  %39 = call ptr @proto_tree_add_item(ptr noundef %15, i32 noundef %38, ptr noundef %0, i32 noundef 3, i32 noundef %25, i32 noundef 0)
  br label %.loopexit

40:                                               ; preds = %24
  %41 = icmp samesign ugt i32 %8, 8
  br i1 %41, label %42, label %45

42:                                               ; preds = %40
  %43 = load i32, ptr @hf_lcp_opt_802_1_address, align 4
  %44 = call ptr @proto_tree_add_item(ptr noundef %15, i32 noundef %43, ptr noundef %0, i32 noundef 3, i32 noundef 6, i32 noundef 0)
  br label %.loopexit

45:                                               ; preds = %40
  %46 = load i32, ptr @hf_lcp_opt_data, align 4
  %47 = call ptr @proto_tree_add_item(ptr noundef %15, i32 noundef %46, ptr noundef %0, i32 noundef 3, i32 noundef %25, i32 noundef 0)
  br label %.loopexit

48:                                               ; preds = %24
  %49 = and i32 %25, 3
  %.not = icmp eq i32 %49, 0
  br i1 %.not, label %53, label %50

50:                                               ; preds = %48
  %51 = load i32, ptr @hf_lcp_opt_data, align 4
  %52 = call ptr @proto_tree_add_item(ptr noundef %15, i32 noundef %51, ptr noundef %0, i32 noundef 3, i32 noundef %25, i32 noundef 0)
  br label %.loopexit

53:                                               ; preds = %48
  %54 = load i32, ptr @hf_lcp_opt_magic_block, align 4
  %55 = icmp samesign ult i32 %8, 24
  %56 = select i1 %55, i32 %25, i32 20
  %57 = call ptr @proto_tree_add_item(ptr noundef %15, i32 noundef %54, ptr noundef %0, i32 noundef 3, i32 noundef %56, i32 noundef 0)
  %58 = load i32, ptr @ett_lcp_magic_block, align 4
  %59 = call ptr @proto_item_add_subtree(ptr noundef %57, i32 noundef %58)
  %60 = icmp samesign ugt i32 %8, 6
  br i1 %60, label %.lr.ph, label %.loopexit

.lr.ph:                                           ; preds = %53, %.lr.ph
  %.055 = phi i32 [ %63, %.lr.ph ], [ %25, %53 ]
  %.05054 = phi i32 [ %64, %.lr.ph ], [ 3, %53 ]
  %61 = load i32, ptr @hf_lcp_opt_magic_number, align 4
  %62 = call ptr @proto_tree_add_item(ptr noundef %59, i32 noundef %61, ptr noundef %0, i32 noundef %.05054, i32 noundef 4, i32 noundef 0)
  %63 = add nsw i32 %.055, -4
  %64 = add nuw nsw i32 %.05054, 4
  %65 = icmp samesign ugt i32 %.055, 7
  br i1 %65, label %.lr.ph, label %.loopexit, !llvm.loop !12

66:                                               ; preds = %24
  %67 = load i32, ptr @hf_lcp_opt_psndn, align 4
  %68 = call i32 @llvm.umin.i32(i32 %25, i32 15)
  %69 = call ptr @proto_tree_add_item(ptr noundef %15, i32 noundef %67, ptr noundef %0, i32 noundef 3, i32 noundef %68, i32 noundef 0)
  br label %.loopexit

70:                                               ; preds = %24
  %71 = load i32, ptr @hf_lcp_opt_data, align 4
  %72 = call ptr @proto_tree_add_item(ptr noundef %15, i32 noundef %71, ptr noundef %0, i32 noundef 3, i32 noundef %25, i32 noundef 0)
  br label %.loopexit

.loopexit:                                        ; preds = %.lr.ph, %53, %50, %42, %45, %34, %37, %70, %66, %27, %24
  %73 = call i32 @tvb_captured_length(ptr noundef %0)
  br label %74

74:                                               ; preds = %.loopexit, %22, %12
  %.051 = phi i32 [ %23, %22 ], [ %73, %.loopexit ], [ %13, %12 ]
  call void @llvm.lifetime.end.p0(i64 4, ptr nonnull %7) #8
  call void @llvm.lifetime.end.p0(i64 8, ptr nonnull %6) #8
  call void @llvm.lifetime.end.p0(i64 8, ptr nonnull %5) #8
  ret i32 %.051
}